; Function Attrs: inlinehint nounwind uwtable
define internal fastcc ptr @pmix_bfrops_base_tma_argv_copy(ptr noundef readonly captures(address_is_null) %0, ptr noundef %1) unnamed_addr #4 {
  %3 = icmp eq ptr %0, null
  br i1 %3, label %pmix_bfrops_base_tma_argv_free.exit, label %4

4:                                                ; preds = %2
  %.not.i = icmp eq ptr %1, null
  br i1 %.not.i, label %pmix_tma_malloc.exit, label %pmix_tma_malloc.exit.thread

pmix_tma_malloc.exit:                             ; preds = %4
  %5 = tail call noalias dereferenceable_or_null(8) ptr @malloc(i64 noundef 8) #18
  store ptr null, ptr %5, align 8, !tbaa !68
  %6 = load ptr, ptr %0, align 8, !tbaa !68
  %.not25 = icmp eq ptr %6, null
  br i1 %.not25, label %pmix_bfrops_base_tma_argv_free.exit, label %.lr.ph.split.us

pmix_tma_malloc.exit.thread:                      ; preds = %4
  %7 = load ptr, ptr %1, align 8, !tbaa !39
  %8 = tail call ptr %7(ptr noundef nonnull %1, i64 noundef 8) #17
  store ptr null, ptr %8, align 8, !tbaa !68
  %9 = load ptr, ptr %0, align 8, !tbaa !68
  %.not2540 = icmp eq ptr %9, null
  br i1 %.not2540, label %pmix_bfrops_base_tma_argv_free.exit, label %.lr.ph.split.preheader

.lr.ph.split.preheader:                           ; preds = %pmix_tma_malloc.exit.thread
  %10 = getelementptr inbounds nuw i8, ptr %1, i64 16
  %11 = getelementptr inbounds nuw i8, ptr %1, i64 24
  br label %.lr.ph.split

.lr.ph.split.us:                                  ; preds = %pmix_tma_malloc.exit, %26
  %12 = phi ptr [ %29, %26 ], [ %6, %pmix_tma_malloc.exit ]
  %.0827.us = phi ptr [ %28, %26 ], [ %0, %pmix_tma_malloc.exit ]
  %.01726.us = phi ptr [ %20, %26 ], [ %5, %pmix_tma_malloc.exit ]
  %13 = load ptr, ptr %.01726.us, align 8, !tbaa !68
  %.not1.i.i.us = icmp eq ptr %13, null
  br i1 %.not1.i.i.us, label %pmix_bfrops_base_tma_argv_count.exit.i.us, label %.lr.ph.i.i.us

.lr.ph.i.i.us:                                    ; preds = %.lr.ph.split.us, %.lr.ph.i.i.us
  %.03.i.i.us = phi i32 [ %14, %.lr.ph.i.i.us ], [ 0, %.lr.ph.split.us ]
  %.062.i.i.us = phi ptr [ %15, %.lr.ph.i.i.us ], [ %.01726.us, %.lr.ph.split.us ]
  %14 = add nuw nsw i32 %.03.i.i.us, 1
  %15 = getelementptr inbounds nuw i8, ptr %.062.i.i.us, i64 8
  %16 = load ptr, ptr %15, align 8, !tbaa !68
  %.not.i25.i.us = icmp eq ptr %16, null
  br i1 %.not.i25.i.us, label %pmix_bfrops_base_tma_argv_count.exit.i.us, label %.lr.ph.i.i.us, !llvm.loop !307

pmix_bfrops_base_tma_argv_count.exit.i.us:        ; preds = %.lr.ph.i.i.us, %.lr.ph.split.us
  %.0.lcssa.i.i.us = phi i32 [ 0, %.lr.ph.split.us ], [ %14, %.lr.ph.i.i.us ]
  %17 = add nsw i32 %.0.lcssa.i.i.us, 2
  %18 = sext i32 %17 to i64
  %19 = shl nsw i64 %18, 3
  %20 = tail call ptr @realloc(ptr noundef nonnull %.01726.us, i64 noundef %19) #24
  %21 = icmp eq ptr %20, null
  br i1 %21, label %pmix_bfrops_base_tma_argv_free.exit, label %pmix_tma_strdup.exit.i.us

pmix_tma_strdup.exit.i.us:                        ; preds = %pmix_bfrops_base_tma_argv_count.exit.i.us
  %22 = tail call noalias ptr @strdup(ptr noundef nonnull %12) #17
  %23 = sext i32 %.0.lcssa.i.i.us to i64
  %24 = getelementptr inbounds ptr, ptr %20, i64 %23
  store ptr %22, ptr %24, align 8, !tbaa !68
  %25 = icmp eq ptr %22, null
  br i1 %25, label %.preheader.i, label %26

26:                                               ; preds = %pmix_tma_strdup.exit.i.us
  %27 = getelementptr i8, ptr %24, i64 8
  store ptr null, ptr %27, align 8, !tbaa !68
  %28 = getelementptr inbounds nuw i8, ptr %.0827.us, i64 8
  %29 = load ptr, ptr %28, align 8, !tbaa !68
  %.not.us = icmp eq ptr %29, null
  br i1 %.not.us, label %pmix_bfrops_base_tma_argv_free.exit, label %.lr.ph.split.us, !llvm.loop !308

.lr.ph.split:                                     ; preds = %.lr.ph.split.preheader, %58
  %30 = phi ptr [ %61, %58 ], [ %9, %.lr.ph.split.preheader ]
  %.0827 = phi ptr [ %60, %58 ], [ %0, %.lr.ph.split.preheader ]
  %.01726 = phi ptr [ %39, %58 ], [ %8, %.lr.ph.split.preheader ]
  %31 = load ptr, ptr %.01726, align 8, !tbaa !68
  %.not1.i.i = icmp eq ptr %31, null
  br i1 %.not1.i.i, label %pmix_bfrops_base_tma_argv_count.exit.i, label %.lr.ph.i.i

.lr.ph.i.i:                                       ; preds = %.lr.ph.split, %.lr.ph.i.i
  %.03.i.i = phi i32 [ %32, %.lr.ph.i.i ], [ 0, %.lr.ph.split ]
  %.062.i.i = phi ptr [ %33, %.lr.ph.i.i ], [ %.01726, %.lr.ph.split ]
  %32 = add nuw nsw i32 %.03.i.i, 1
  %33 = getelementptr inbounds nuw i8, ptr %.062.i.i, i64 8
  %34 = load ptr, ptr %33, align 8, !tbaa !68
  %.not.i25.i = icmp eq ptr %34, null
  br i1 %.not.i25.i, label %pmix_bfrops_base_tma_argv_count.exit.i, label %.lr.ph.i.i, !llvm.loop !307

pmix_bfrops_base_tma_argv_count.exit.i:           ; preds = %.lr.ph.i.i, %.lr.ph.split
  %.0.lcssa.i.i = phi i32 [ 0, %.lr.ph.split ], [ %32, %.lr.ph.i.i ]
  %35 = add nsw i32 %.0.lcssa.i.i, 2
  %36 = sext i32 %35 to i64
  %37 = shl nsw i64 %36, 3
  %38 = load ptr, ptr %10, align 8, !tbaa !224
  %39 = tail call ptr %38(ptr noundef nonnull %1, ptr noundef nonnull %.01726, i64 noundef %37) #17
  %40 = icmp eq ptr %39, null
  br i1 %40, label %pmix_bfrops_base_tma_argv_free.exit, label %pmix_tma_strdup.exit.i

pmix_tma_strdup.exit.i:                           ; preds = %pmix_bfrops_base_tma_argv_count.exit.i
  %41 = load ptr, ptr %11, align 8, !tbaa !194
  %42 = tail call ptr %41(ptr noundef nonnull %1, ptr noundef nonnull %30) #17
  %43 = sext i32 %.0.lcssa.i.i to i64
  %44 = getelementptr inbounds ptr, ptr %39, i64 %43
  store ptr %42, ptr %44, align 8, !tbaa !68
  %45 = icmp eq ptr %42, null
  br i1 %45, label %.preheader.i, label %58

.preheader.i:                                     ; preds = %pmix_tma_strdup.exit.i, %pmix_tma_strdup.exit.i.us
  %.us-phi29 = phi ptr [ %20, %pmix_tma_strdup.exit.i.us ], [ %39, %pmix_tma_strdup.exit.i ]
  %46 = load ptr, ptr %.us-phi29, align 8, !tbaa !68
  %.not1013.i = icmp eq ptr %46, null
  br i1 %.not1013.i, label %._crit_edge.i, label %.lr.ph.i

.lr.ph.i:                                         ; preds = %.preheader.i
  %47 = getelementptr inbounds nuw i8, ptr %1, i64 40
  br i1 %.not.i, label %pmix_tma_free.exit12.us.i, label %pmix_tma_free.exit12.i

pmix_tma_free.exit12.us.i:                        ; preds = %.lr.ph.i, %pmix_tma_free.exit12.us.i
  %48 = phi ptr [ %50, %pmix_tma_free.exit12.us.i ], [ %46, %.lr.ph.i ]
  %.014.us.i = phi ptr [ %49, %pmix_tma_free.exit12.us.i ], [ %.us-phi29, %.lr.ph.i ]
  tail call void @free(ptr noundef nonnull %48) #17
  %49 = getelementptr inbounds nuw i8, ptr %.014.us.i, i64 8
  %50 = load ptr, ptr %49, align 8, !tbaa !68
  %.not10.us.i = icmp eq ptr %50, null
  br i1 %.not10.us.i, label %._crit_edge.i, label %pmix_tma_free.exit12.us.i, !llvm.loop !146

._crit_edge.i:                                    ; preds = %pmix_tma_free.exit12.us.i, %.preheader.i
  br i1 %.not.i, label %53, label %._crit_edge.thread.i

._crit_edge.thread.i:                             ; preds = %pmix_tma_free.exit12.i, %._crit_edge.i
  %51 = getelementptr inbounds nuw i8, ptr %1, i64 40
  %52 = load ptr, ptr %51, align 8, !tbaa !38
  tail call void %52(ptr noundef nonnull %1, ptr noundef nonnull %.us-phi29) #17
  br label %pmix_bfrops_base_tma_argv_free.exit

53:                                               ; preds = %._crit_edge.i
  tail call void @free(ptr noundef nonnull %.us-phi29) #17
  br label %pmix_bfrops_base_tma_argv_free.exit

pmix_tma_free.exit12.i:                           ; preds = %.lr.ph.i, %pmix_tma_free.exit12.i
  %54 = phi ptr [ %57, %pmix_tma_free.exit12.i ], [ %46, %.lr.ph.i ]
  %.014.i = phi ptr [ %56, %pmix_tma_free.exit12.i ], [ %.us-phi29, %.lr.ph.i ]
  %55 = load ptr, ptr %47, align 8, !tbaa !38
  tail call void %55(ptr noundef nonnull %1, ptr noundef nonnull %54) #17
  %56 = getelementptr inbounds nuw i8, ptr %.014.i, i64 8
  %57 = load ptr, ptr %56, align 8, !tbaa !68
  %.not10.i = icmp eq ptr %57, null
  br i1 %.not10.i, label %._crit_edge.thread.i, label %pmix_tma_free.exit12.i, !llvm.loop !146

58:                                               ; preds = %pmix_tma_strdup.exit.i
  %59 = getelementptr i8, ptr %44, i64 8
  store ptr null, ptr %59, align 8, !tbaa !68
  %60 = getelementptr inbounds nuw i8, ptr %.0827, i64 8
  %61 = load ptr, ptr %60, align 8, !tbaa !68
  %.not = icmp eq ptr %61, null
  br i1 %.not, label %pmix_bfrops_base_tma_argv_free.exit, label %.lr.ph.split, !llvm.loop !308

pmix_bfrops_base_tma_argv_free.exit:              ; preds = %58, %pmix_bfrops_base_tma_argv_count.exit.i, %26, %pmix_bfrops_base_tma_argv_count.exit.i.us, %pmix_tma_malloc.exit.thread, %pmix_tma_malloc.exit, %._crit_edge.thread.i, %53, %2
  %.0 = phi ptr [ null, %2 ], [ null, %._crit_edge.thread.i ], [ null, %53 ], [ %5, %pmix_tma_malloc.exit ], [ %8, %pmix_tma_malloc.exit.thread ], [ %20, %26 ], [ null, %pmix_bfrops_base_tma_argv_count.exit.i.us ], [ %39, %58 ], [ null, %pmix_bfrops_base_tma_argv_count.exit.i ]
  ret ptr %.0
}